; ModuleID = 'source-C-CXX/4/964.c'
source_filename = "source-C-CXX/4/964.c"
target datalayout = "e-m:e-p270:32:32-p271:32:32-p272:64:64-i64:64-f80:128-n8:16:32:64-S128"
target triple = "x86_64-pc-linux-gnu"

@.str = private unnamed_addr constant [4 x i8] c"%lf\00", align 1
@.str.1 = private unnamed_addr constant [6 x i8] c"%s %s\00", align 1
@.str.2 = private unnamed_addr constant [6 x i8] c"error\00", align 1
@.str.3 = private unnamed_addr constant [4 x i8] c"yes\00", align 1
@.str.4 = private unnamed_addr constant [3 x i8] c"no\00", align 1

; Function Attrs: nofree nounwind sspstrong uwtable
define dso_local i32 @main() local_unnamed_addr #0 {
  %1 = alloca double, align 8
  %2 = alloca [2 x [600 x i8]], align 16
  %3 = bitcast double* %1 to i8*
  call void @llvm.lifetime.start.p0i8(i64 8, i8* nonnull %3) #4
  %4 = getelementptr inbounds [2 x [600 x i8]], [2 x [600 x i8]]* %2, i64 0, i64 0, i64 0
  call void @llvm.lifetime.start.p0i8(i64 1200, i8* nonnull %4) #4
  %5 = call i32 (i8*, ...) @__isoc99_scanf(i8* getelementptr inbounds ([4 x i8], [4 x i8]* @.str, i64 0, i64 0), double* nonnull %1)
  %6 = getelementptr inbounds [2 x [600 x i8]], [2 x [600 x i8]]* %2, i64 0, i64 1, i64 0
  %7 = call i32 (i8*, ...) @__isoc99_scanf(i8* getelementptr inbounds ([6 x i8], [6 x i8]* @.str.1, i64 0, i64 0), i8* nonnull %4, i8* nonnull %6)
  %8 = call i64 @strlen(i8* noundef nonnull %4) #5
  %9 = trunc i64 %8 to i32
  %10 = call i64 @strlen(i8* noundef nonnull %6) #5
  %11 = trunc i64 %10 to i32
  %12 = icmp eq i32 %9, %11
  br i1 %12, label %13, label %40

13:                                               ; preds = %0
  %14 = icmp sgt i32 %9, 0
  br i1 %14, label %15, label %33

15:                                               ; preds = %13
  %16 = and i64 %8, 4294967295
  br label %17

17:                                               ; preds = %15, %25
  %18 = phi i64 [ 0, %15 ], [ %29, %25 ]
  %19 = phi i32 [ 0, %15 ], [ %28, %25 ]
  %20 = getelementptr inbounds [2 x [600 x i8]], [2 x [600 x i8]]* %2, i64 0, i64 0, i64 %18
  %21 = load i8, i8* %20, align 1, !tbaa !5
  switch i8 %21, label %40 [
    i8 65, label %22
    i8 71, label %22
    i8 67, label %22
    i8 84, label %22
  ]

22:                                               ; preds = %17, %17, %17, %17
  %23 = getelementptr inbounds [2 x [600 x i8]], [2 x [600 x i8]]* %2, i64 0, i64 1, i64 %18
  %24 = load i8, i8* %23, align 1, !tbaa !5
  switch i8 %24, label %40 [
    i8 65, label %25
    i8 71, label %25
    i8 67, label %25
    i8 84, label %25
  ]

25:                                               ; preds = %22, %22, %22, %22
  %26 = icmp eq i8 %21, %24
  %27 = zext i1 %26 to i32
  %28 = add nuw nsw i32 %19, %27
  %29 = add nuw nsw i64 %18, 1
  %30 = icmp eq i64 %29, %16
  br i1 %30, label %31, label %17, !llvm.loop !8

31:                                               ; preds = %25
  %32 = sitofp i32 %28 to double
  br label %33

33:                                               ; preds = %31, %13
  %34 = phi double [ 0.000000e+00, %13 ], [ %32, %31 ]
  %35 = sitofp i32 %9 to double
  %36 = fdiv double %34, %35
  %37 = load double, double* %1, align 8, !tbaa !10
  %38 = fcmp ult double %36, %37
  %39 = select i1 %38, i8* getelementptr inbounds ([3 x i8], [3 x i8]* @.str.4, i64 0, i64 0), i8* getelementptr inbounds ([4 x i8], [4 x i8]* @.str.3, i64 0, i64 0)
  br label %40

40:                                               ; preds = %17, %22, %33, %0
  %41 = phi i8* [ getelementptr inbounds ([6 x i8], [6 x i8]* @.str.2, i64 0, i64 0), %0 ], [ %39, %33 ], [ getelementptr inbounds ([6 x i8], [6 x i8]* @.str.2, i64 0, i64 0), %22 ], [ getelementptr inbounds ([6 x i8], [6 x i8]* @.str.2, i64 0, i64 0), %17 ]
  %42 = call i32 (i8*, ...) @printf(i8* nonnull dereferenceable(1) %41)
  call void @llvm.lifetime.end.p0i8(i64 1200, i8* nonnull %4) #4
  call void @llvm.lifetime.end.p0i8(i64 8, i8* nonnull %3) #4
  ret i32 0
}

; Function Attrs: argmemonly mustprogress nofree nosync nounwind willreturn
declare void @llvm.lifetime.start.p0i8(i64 immarg, i8* nocapture) #1

; Function Attrs: nofree nounwind
declare noundef i32 @__isoc99_scanf(i8* nocapture noundef readonly, ...) local_unnamed_addr #2

; Function Attrs: argmemonly mustprogress nofree nounwind readonly willreturn
declare i64 @strlen(i8* nocapture) local_unnamed_addr #3

; Function Attrs: nofree nounwind
declare noundef i32 @printf(i8* nocapture noundef readonly, ...) local_unnamed_addr #2

; Function Attrs: argmemonly mustprogress nofree nosync nounwind willreturn
declare void @llvm.lifetime.end.p0i8(i64 immarg, i8* nocapture) #1


!llvm.module.flags = !{!0, !1, !2, !3}
!llvm.ident = !{!4}

!0 = !{i32 1, !"wchar_size", i32 4}
!1 = !{i32 7, !"PIC Level", i32 2}
!2 = !{i32 7, !"PIE Level", i32 2}
!3 = !{i32 7, !"uwtable", i32 1}
!4 = !{!"clang version 13.0.0"}
!5 = !{!6, !6, i64 0}
!6 = !{!"omnipotent char", !7, i64 0}
!7 = !{!"Simple C/C++ TBAA"}
!8 = distinct !{!8, !9}
!9 = !{!"llvm.loop.mustprogress"}
!10 = !{!11, !11, i64 0}
!11 = !{!"double", !6, i64 0}
